(dp0
S'james'
p1
ccopy_reg
_reconstructor
p2
(cathletelist
AthleteList
p3
c__builtin__
list
p4
(lp5
S'2.58'
p6
aS'2.59'
p7
aS'2.65'
p8
aS'1.4'
p9
atp10
Rp11
(dp12
S'dob'
p13
S'2002-6-17'
p14
sS'name'
p15
g1
sbsS'bran'
p16
g2
(g3
g4
(lp17
S'2.99'
p18
aS'2.59'
p19
aS'2.65'
p20
aS'1.4'
p21
atp22
Rp23
(dp24
g13
S'2003-6-17'
p25
sg15
g16
sbs.